target datalayout = "e-m:e-p270:32:32-p271:32:32-p272:64:64-i64:64-i128:128-f80:128-n8:16:32:64-S128"
target triple = "x86_64-pc-linux-gnu"

%struct.TextPositionState = type { i8, ptr, ptr, i32, i32, i32, [256 x i32], ptr, ptr, i32 }

; Function Attrs: nounwind uwtable
define internal ptr @text_position_next_internal(ptr noundef %0, ptr noundef %1) #1 {
  %3 = alloca ptr, align 8
  %4 = alloca ptr, align 8
  %5 = alloca ptr, align 8
  %6 = alloca i32, align 4
  %7 = alloca i32, align 4
  %8 = alloca i32, align 4
  %9 = alloca ptr, align 8
  %10 = alloca ptr, align 8
  %11 = alloca ptr, align 8
  %12 = alloca ptr, align 8
  %13 = alloca i8, align 1
  %14 = alloca i32, align 4
  %15 = alloca ptr, align 8
  %16 = alloca ptr, align 8
  %17 = alloca ptr, align 8
  store ptr %0, ptr %4, align 8
  store ptr %1, ptr %5, align 8
  call void @llvm.lifetime.start.p0(i64 4, ptr %6) #13
  %18 = load ptr, ptr %5, align 8
  %19 = getelementptr inbounds nuw %struct.TextPositionState, ptr %18, i32 0, i32 3
  %20 = load i32, ptr %19, align 8
  store i32 %20, ptr %6, align 4
  call void @llvm.lifetime.start.p0(i64 4, ptr %7) #13
  %21 = load ptr, ptr %5, align 8
  %22 = getelementptr inbounds nuw %struct.TextPositionState, ptr %21, i32 0, i32 4
  %23 = load i32, ptr %22, align 4
  store i32 %23, ptr %7, align 4
  call void @llvm.lifetime.start.p0(i64 4, ptr %8) #13
  %24 = load ptr, ptr %5, align 8
  %25 = getelementptr inbounds nuw %struct.TextPositionState, ptr %24, i32 0, i32 5
  %26 = load i32, ptr %25, align 8
  store i32 %26, ptr %8, align 4
  call void @llvm.lifetime.start.p0(i64 8, ptr %9) #13
  %27 = load ptr, ptr %5, align 8
  %28 = getelementptr inbounds nuw %struct.TextPositionState, ptr %27, i32 0, i32 1
  %29 = load ptr, ptr %28, align 8
  store ptr %29, ptr %9, align 8
  call void @llvm.lifetime.start.p0(i64 8, ptr %10) #13
  %30 = load ptr, ptr %5, align 8
  %31 = getelementptr inbounds nuw %struct.TextPositionState, ptr %30, i32 0, i32 2
  %32 = load ptr, ptr %31, align 8
  store ptr %32, ptr %10, align 8
  call void @llvm.lifetime.start.p0(i64 8, ptr %11) #13
  %33 = load ptr, ptr %9, align 8
  %34 = load i32, ptr %6, align 4
  %35 = sext i32 %34 to i64
  %36 = getelementptr inbounds i8, ptr %33, i64 %35
  store ptr %36, ptr %11, align 8
  call void @llvm.lifetime.start.p0(i64 8, ptr %12) #13
  %37 = load i32, ptr %7, align 4
  %38 = icmp eq i32 %37, 1
  br i1 %38, label %39, label %63

39:                                               ; preds = %2
  call void @llvm.lifetime.start.p0(i64 1, ptr %13) #13
  %40 = load ptr, ptr %10, align 8
  %41 = load i8, ptr %40, align 1
  store i8 %41, ptr %13, align 1
  %42 = load ptr, ptr %4, align 8
  store ptr %42, ptr %12, align 8
  br label %43

43:                                               ; preds = %56, %39
  %44 = load ptr, ptr %12, align 8
  %45 = load ptr, ptr %11, align 8
  %46 = icmp ult ptr %44, %45
  br i1 %46, label %47, label %59

47:                                               ; preds = %43
  %48 = load ptr, ptr %12, align 8
  %49 = load i8, ptr %48, align 1
  %50 = sext i8 %49 to i32
  %51 = load i8, ptr %13, align 1
  %52 = sext i8 %51 to i32
  %53 = icmp eq i32 %50, %52
  br i1 %53, label %54, label %56

54:                                               ; preds = %47
  %55 = load ptr, ptr %12, align 8
  store ptr %55, ptr %3, align 8
  store i32 1, ptr %14, align 4
  br label %60

56:                                               ; preds = %47
  %57 = load ptr, ptr %12, align 8
  %58 = getelementptr inbounds nuw i8, ptr %57, i32 1
  store ptr %58, ptr %12, align 8
  br label %43, !llvm.loop !71

59:                                               ; preds = %43
  store i32 0, ptr %14, align 4
  br label %60

60:                                               ; preds = %59, %54
  call void @llvm.lifetime.end.p0(i64 1, ptr %13) #13
  %61 = load i32, ptr %14, align 4
  switch i32 %61, label %122 [
    i32 0, label %62
  ]

62:                                               ; preds = %60
  br label %121

63:                                               ; preds = %2
  call void @llvm.lifetime.start.p0(i64 8, ptr %15) #13
  %64 = load ptr, ptr %10, align 8
  %65 = load i32, ptr %7, align 4
  %66 = sub i32 %65, 1
  %67 = sext i32 %66 to i64
  %68 = getelementptr inbounds i8, ptr %64, i64 %67
  store ptr %68, ptr %15, align 8
  %69 = load ptr, ptr %4, align 8
  %70 = load i32, ptr %7, align 4
  %71 = sext i32 %70 to i64
  %72 = getelementptr inbounds i8, ptr %69, i64 %71
  %73 = getelementptr inbounds i8, ptr %72, i64 -1
  store ptr %73, ptr %12, align 8
  br label %74

74:                                               ; preds = %116, %63
  %75 = load ptr, ptr %12, align 8
  %76 = load ptr, ptr %11, align 8
  %77 = icmp ult ptr %75, %76
  br i1 %77, label %78, label %117

78:                                               ; preds = %74
  call void @llvm.lifetime.start.p0(i64 8, ptr %16) #13
  call void @llvm.lifetime.start.p0(i64 8, ptr %17) #13
  %79 = load ptr, ptr %15, align 8
  store ptr %79, ptr %16, align 8
  %80 = load ptr, ptr %12, align 8
  store ptr %80, ptr %17, align 8
  br label %81

81:                                               ; preds = %95, %78
  %82 = load ptr, ptr %16, align 8
  %83 = load i8, ptr %82, align 1
  %84 = sext i8 %83 to i32
  %85 = load ptr, ptr %17, align 8
  %86 = load i8, ptr %85, align 1
  %87 = sext i8 %86 to i32
  %88 = icmp eq i32 %84, %87
  br i1 %88, label %89, label %100

89:                                               ; preds = %81
  %90 = load ptr, ptr %16, align 8
  %91 = load ptr, ptr %10, align 8
  %92 = icmp eq ptr %90, %91
  br i1 %92, label %93, label %95

93:                                               ; preds = %89
  %94 = load ptr, ptr %17, align 8
  store ptr %94, ptr %3, align 8
  store i32 1, ptr %14, align 4
  br label %114

95:                                               ; preds = %89
  %96 = load ptr, ptr %16, align 8
  %97 = getelementptr inbounds i8, ptr %96, i32 -1
  store ptr %97, ptr %16, align 8
  %98 = load ptr, ptr %17, align 8
  %99 = getelementptr inbounds i8, ptr %98, i32 -1
  store ptr %99, ptr %17, align 8
  br label %81, !llvm.loop !72

100:                                              ; preds = %81
  %101 = load ptr, ptr %5, align 8
  %102 = getelementptr inbounds nuw %struct.TextPositionState, ptr %101, i32 0, i32 6
  %103 = load ptr, ptr %12, align 8
  %104 = load i8, ptr %103, align 1
  %105 = zext i8 %104 to i32
  %106 = load i32, ptr %8, align 4
  %107 = and i32 %105, %106
  %108 = sext i32 %107 to i64
  %109 = getelementptr inbounds [256 x i32], ptr %102, i64 0, i64 %108
  %110 = load i32, ptr %109, align 4
  %111 = load ptr, ptr %12, align 8
  %112 = sext i32 %110 to i64
  %113 = getelementptr inbounds i8, ptr %111, i64 %112
  store ptr %113, ptr %12, align 8
  store i32 0, ptr %14, align 4
  br label %114

114:                                              ; preds = %100, %93
  call void @llvm.lifetime.end.p0(i64 8, ptr %17) #13
  call void @llvm.lifetime.end.p0(i64 8, ptr %16) #13
  %115 = load i32, ptr %14, align 4
  switch i32 %115, label %118 [
    i32 0, label %116
  ]

116:                                              ; preds = %114
  br label %74, !llvm.loop !73

117:                                              ; preds = %74
  store i32 0, ptr %14, align 4
  br label %118

118:                                              ; preds = %117, %114
  call void @llvm.lifetime.end.p0(i64 8, ptr %15) #13
  %119 = load i32, ptr %14, align 4
  switch i32 %119, label %122 [
    i32 0, label %120
  ]

120:                                              ; preds = %118
  br label %121

121:                                              ; preds = %120, %62
  store ptr null, ptr %3, align 8
  store i32 1, ptr %14, align 4
  br label %122

122:                                              ; preds = %121, %118, %60
  call void @llvm.lifetime.end.p0(i64 8, ptr %12) #13
  call void @llvm.lifetime.end.p0(i64 8, ptr %11) #13
  call void @llvm.lifetime.end.p0(i64 8, ptr %10) #13
  call void @llvm.lifetime.end.p0(i64 8, ptr %9) #13
  call void @llvm.lifetime.end.p0(i64 4, ptr %8) #13
  call void @llvm.lifetime.end.p0(i64 4, ptr %7) #13
  call void @llvm.lifetime.end.p0(i64 4, ptr %6) #13
  %123 = load ptr, ptr %3, align 8
  ret ptr %123
}

; Function Attrs: nounwind uwtable
define internal zeroext i1 @text_position_next(ptr noundef %0) #1 {
  %2 = alloca i1, align 1
  %3 = alloca ptr, align 8
  %4 = alloca i32, align 4
  %5 = alloca ptr, align 8
  %6 = alloca ptr, align 8
  %7 = alloca i32, align 4
  store ptr %0, ptr %3, align 8
  call void @llvm.lifetime.start.p0(i64 4, ptr %4) #13
  %8 = load ptr, ptr %3, align 8
  %9 = getelementptr inbounds nuw %struct.TextPositionState, ptr %8, i32 0, i32 4
  %10 = load i32, ptr %9, align 4
  store i32 %10, ptr %4, align 4
  call void @llvm.lifetime.start.p0(i64 8, ptr %5) #13
  call void @llvm.lifetime.start.p0(i64 8, ptr %6) #13
  %11 = load i32, ptr %4, align 4
  %12 = icmp sle i32 %11, 0
  br i1 %12, label %13, label %14

13:                                               ; preds = %1
  store i1 false, ptr %2, align 1
  store i32 1, ptr %7, align 4
  br label %79

14:                                               ; preds = %1
  %15 = load ptr, ptr %3, align 8
  %16 = getelementptr inbounds nuw %struct.TextPositionState, ptr %15, i32 0, i32 7
  %17 = load ptr, ptr %16, align 8
  %18 = icmp ne ptr %17, null
  br i1 %18, label %19, label %26

19:                                               ; preds = %14
  %20 = load ptr, ptr %3, align 8
  %21 = getelementptr inbounds nuw %struct.TextPositionState, ptr %20, i32 0, i32 7
  %22 = load ptr, ptr %21, align 8
  %23 = load i32, ptr %4, align 4
  %24 = sext i32 %23 to i64
  %25 = getelementptr inbounds i8, ptr %22, i64 %24
  store ptr %25, ptr %5, align 8
  br label %30

26:                                               ; preds = %14
  %27 = load ptr, ptr %3, align 8
  %28 = getelementptr inbounds nuw %struct.TextPositionState, ptr %27, i32 0, i32 1
  %29 = load ptr, ptr %28, align 8
  store ptr %29, ptr %5, align 8
  br label %30

30:                                               ; preds = %26, %19
  br label %31

31:                                               ; preds = %69, %30
  %32 = load ptr, ptr %5, align 8
  %33 = load ptr, ptr %3, align 8
  %34 = call ptr @text_position_next_internal(ptr noundef %32, ptr noundef %33)
  store ptr %34, ptr %6, align 8
  %35 = load ptr, ptr %6, align 8
  %36 = icmp ne ptr %35, null
  br i1 %36, label %38, label %37

37:                                               ; preds = %31
  store i1 false, ptr %2, align 1
  store i32 1, ptr %7, align 4
  br label %79

38:                                               ; preds = %31
  %39 = load ptr, ptr %3, align 8
  %40 = getelementptr inbounds nuw %struct.TextPositionState, ptr %39, i32 0, i32 0
  %41 = load i8, ptr %40, align 8, !range !9, !noundef !10
  %42 = trunc i8 %41 to i1
  br i1 %42, label %43, label %75

43:                                               ; preds = %38
  br label %44

44:                                               ; preds = %73, %43
  %45 = load ptr, ptr %3, align 8
  %46 = getelementptr inbounds nuw %struct.TextPositionState, ptr %45, i32 0, i32 8
  %47 = load ptr, ptr %46, align 8
  %48 = load ptr, ptr %6, align 8
  %49 = icmp ult ptr %47, %48
  br i1 %49, label %50, label %74

50:                                               ; preds = %44
  %51 = load ptr, ptr %3, align 8
  %52 = getelementptr inbounds nuw %struct.TextPositionState, ptr %51, i32 0, i32 8
  %53 = load ptr, ptr %52, align 8
  %54 = call i32 @pg_mblen(ptr noundef %53)
  %55 = load ptr, ptr %3, align 8
  %56 = getelementptr inbounds nuw %struct.TextPositionState, ptr %55, i32 0, i32 8
  %57 = load ptr, ptr %56, align 8
  %58 = sext i32 %54 to i64
  %59 = getelementptr inbounds i8, ptr %57, i64 %58
  store ptr %59, ptr %56, align 8
  %60 = load ptr, ptr %3, align 8
  %61 = getelementptr inbounds nuw %struct.TextPositionState, ptr %60, i32 0, i32 9
  %62 = load i32, ptr %61, align 8
  %63 = add i32 %62, 1
  store i32 %63, ptr %61, align 8
  %64 = load ptr, ptr %3, align 8
  %65 = getelementptr inbounds nuw %struct.TextPositionState, ptr %64, i32 0, i32 8
  %66 = load ptr, ptr %65, align 8
  %67 = load ptr, ptr %6, align 8
  %68 = icmp ugt ptr %66, %67
  br i1 %68, label %69, label %73

69:                                               ; preds = %50
  %70 = load ptr, ptr %3, align 8
  %71 = getelementptr inbounds nuw %struct.TextPositionState, ptr %70, i32 0, i32 8
  %72 = load ptr, ptr %71, align 8
  store ptr %72, ptr %5, align 8
  br label %31

73:                                               ; preds = %50
  br label %44, !llvm.loop !34

74:                                               ; preds = %44
  br label %75

75:                                               ; preds = %74, %38
  %76 = load ptr, ptr %6, align 8
  %77 = load ptr, ptr %3, align 8
  %78 = getelementptr inbounds nuw %struct.TextPositionState, ptr %77, i32 0, i32 7
  store ptr %76, ptr %78, align 8
  store i1 true, ptr %2, align 1
  store i32 1, ptr %7, align 4
  br label %79

79:                                               ; preds = %75, %37, %13
  call void @llvm.lifetime.end.p0(i64 8, ptr %6) #13
  call void @llvm.lifetime.end.p0(i64 8, ptr %5) #13
  call void @llvm.lifetime.end.p0(i64 4, ptr %4) #13
  %80 = load i1, ptr %2, align 1
  ret i1 %80
}