; Function Attrs: nounwind uwtable
define internal fastcc noundef zeroext i1 @text_position_next(ptr noundef nonnull captures(none) %0) unnamed_addr #0 {
  %2 = getelementptr inbounds nuw i8, ptr %0, i64 28
  %3 = load i32, ptr %2, align 4
  %4 = icmp slt i32 %3, 1
  br i1 %4, label %text_position_next_internal.exit.thread, label %5

5:                                                ; preds = %1
  %6 = getelementptr inbounds nuw i8, ptr %0, i64 1064
  %7 = load ptr, ptr %6, align 8
  %.not = icmp eq ptr %7, null
  br i1 %.not, label %11, label %8

8:                                                ; preds = %5
  %9 = zext nneg i32 %3 to i64
  %10 = getelementptr inbounds nuw i8, ptr %7, i64 %9
  br label %14

11:                                               ; preds = %5
  %12 = getelementptr inbounds nuw i8, ptr %0, i64 8
  %13 = load ptr, ptr %12, align 8
  br label %14

14:                                               ; preds = %11, %8
  %.020 = phi ptr [ %10, %8 ], [ %13, %11 ]
  %15 = getelementptr inbounds nuw i8, ptr %0, i64 24
  %16 = getelementptr inbounds nuw i8, ptr %0, i64 32
  %17 = getelementptr inbounds nuw i8, ptr %0, i64 8
  %18 = getelementptr inbounds nuw i8, ptr %0, i64 16
  %19 = getelementptr inbounds nuw i8, ptr %0, i64 36
  %20 = getelementptr inbounds nuw i8, ptr %0, i64 1072
  %21 = getelementptr inbounds nuw i8, ptr %0, i64 1080
  br label %22

.loopexit33:                                      ; preds = %64
  %.pre = load i32, ptr %2, align 4
  br label %22, !llvm.loop !34

22:                                               ; preds = %.loopexit33, %14
  %23 = phi i32 [ %3, %14 ], [ %.pre, %.loopexit33 ]
  %.1 = phi ptr [ %.020, %14 ], [ %68, %.loopexit33 ]
  %24 = load i32, ptr %15, align 8
  %25 = load i32, ptr %16, align 8
  %26 = load ptr, ptr %17, align 8
  %27 = load ptr, ptr %18, align 8
  %28 = sext i32 %24 to i64
  %29 = getelementptr inbounds i8, ptr %26, i64 %28
  %30 = icmp eq i32 %23, 1
  br i1 %30, label %31, label %37

31:                                               ; preds = %22
  %32 = load i8, ptr %27, align 1
  %.not5063.i = icmp ult ptr %.1, %29
  br i1 %.not5063.i, label %.lr.ph66.i, label %text_position_next_internal.exit.thread

.lr.ph66.i:                                       ; preds = %31, %35
  %.04564.i = phi ptr [ %36, %35 ], [ %.1, %31 ]
  %33 = load i8, ptr %.04564.i, align 1
  %34 = icmp eq i8 %33, %32
  br i1 %34, label %text_position_next_internal.exit.thread29, label %35

35:                                               ; preds = %.lr.ph66.i
  %36 = getelementptr inbounds nuw i8, ptr %.04564.i, i64 1
  %.not50.i = icmp ult ptr %36, %29
  br i1 %.not50.i, label %.lr.ph66.i, label %text_position_next_internal.exit.thread, !llvm.loop !35

37:                                               ; preds = %22
  %38 = add i32 %23, -1
  %39 = sext i32 %38 to i64
  %40 = getelementptr inbounds i8, ptr %27, i64 %39
  %41 = sext i32 %23 to i64
  %42 = getelementptr inbounds i8, ptr %.1, i64 %41
  %43 = getelementptr inbounds i8, ptr %42, i64 -1
  %.not4961.i = icmp ult ptr %43, %29
  br i1 %.not4961.i, label %.preheader.lr.ph.i, label %text_position_next_internal.exit.thread

.preheader.lr.ph.i:                               ; preds = %37
  %44 = load i8, ptr %40, align 1
  %45 = sub nsw i64 0, %39
  br label %.preheader.i

.preheader.i:                                     ; preds = %._crit_edge.i, %.preheader.lr.ph.i
  %.14662.i = phi ptr [ %43, %.preheader.lr.ph.i ], [ %59, %._crit_edge.i ]
  %46 = load i8, ptr %.14662.i, align 1
  %.not58.i = icmp eq i8 %44, %46
  br i1 %.not58.i, label %.lr.ph.i, label %._crit_edge.i

.lr.ph.i:                                         ; preds = %.preheader.i, %48
  %.060.i = phi ptr [ %50, %48 ], [ %.14662.i, %.preheader.i ]
  %.04059.i = phi ptr [ %49, %48 ], [ %40, %.preheader.i ]
  %47 = icmp eq ptr %.04059.i, %27
  br i1 %47, label %text_position_next_internal.exit, label %48

48:                                               ; preds = %.lr.ph.i
  %49 = getelementptr inbounds i8, ptr %.04059.i, i64 -1
  %50 = getelementptr inbounds i8, ptr %.060.i, i64 -1
  %51 = load i8, ptr %49, align 1
  %52 = load i8, ptr %50, align 1
  %.not.i = icmp eq i8 %51, %52
  br i1 %.not.i, label %.lr.ph.i, label %._crit_edge.i, !llvm.loop !36

._crit_edge.i:                                    ; preds = %48, %.preheader.i
  %53 = zext i8 %46 to i32
  %54 = and i32 %25, %53
  %55 = zext nneg i32 %54 to i64
  %56 = getelementptr inbounds nuw [256 x i32], ptr %19, i64 0, i64 %55
  %57 = load i32, ptr %56, align 4
  %58 = sext i32 %57 to i64
  %59 = getelementptr inbounds i8, ptr %.14662.i, i64 %58
  %.not49.i = icmp ult ptr %59, %29
  br i1 %.not49.i, label %.preheader.i, label %text_position_next_internal.exit.thread

text_position_next_internal.exit:                 ; preds = %.lr.ph.i
  %scevgep.le.i = getelementptr i8, ptr %.14662.i, i64 %45
  %.not26 = icmp eq ptr %scevgep.le.i, null
  br i1 %.not26, label %text_position_next_internal.exit.thread, label %text_position_next_internal.exit.thread29

text_position_next_internal.exit.thread29:        ; preds = %.lr.ph66.i, %text_position_next_internal.exit
  %.1.i32 = phi ptr [ %scevgep.le.i, %text_position_next_internal.exit ], [ %.04564.i, %.lr.ph66.i ]
  %60 = load i8, ptr %0, align 8, !range !9, !noundef !10
  %61 = trunc nuw i8 %60 to i1
  br i1 %61, label %.preheader.preheader, label %.loopexit

.preheader.preheader:                             ; preds = %text_position_next_internal.exit.thread29
  %.pre48 = load ptr, ptr %20, align 8
  br label %.preheader

.preheader:                                       ; preds = %.preheader.preheader, %64
  %62 = phi ptr [ %.pre48, %.preheader.preheader ], [ %68, %64 ]
  %63 = icmp ult ptr %62, %.1.i32
  br i1 %63, label %64, label %.loopexit

64:                                               ; preds = %.preheader
  %65 = tail call i32 @pg_mblen(ptr noundef %62) #19
  %66 = load ptr, ptr %20, align 8
  %67 = sext i32 %65 to i64
  %68 = getelementptr inbounds i8, ptr %66, i64 %67
  store ptr %68, ptr %20, align 8
  %69 = load i32, ptr %21, align 8
  %70 = add i32 %69, 1
  store i32 %70, ptr %21, align 8
  %71 = icmp ugt ptr %68, %.1.i32
  br i1 %71, label %.loopexit33, label %.preheader, !llvm.loop !34

.loopexit:                                        ; preds = %text_position_next_internal.exit.thread29, %.preheader
  store ptr %.1.i32, ptr %6, align 8
  br label %text_position_next_internal.exit.thread

text_position_next_internal.exit.thread:          ; preds = %37, %31, %text_position_next_internal.exit, %._crit_edge.i, %35, %1, %.loopexit
  %.0 = phi i1 [ true, %.loopexit ], [ false, %1 ], [ false, %35 ], [ false, %._crit_edge.i ], [ false, %text_position_next_internal.exit ], [ false, %31 ], [ false, %37 ]
  ret i1 %.0
}